; Function Attrs: mustprogress nounwind uwtable
define hidden void @_ZN15DirectivesStack4pushEP18CompilerDirectives(ptr noundef %0) local_unnamed_addr #0 align 2 {
  %2 = load ptr, ptr @DirectivesStack_lock, align 8
  %.not.i.i = icmp eq ptr %2, null
  br i1 %.not.i.i, label %_ZN11MutexLockerC2EP5MutexNS0_18SafepointCheckFlagE.exit, label %3

3:                                                ; preds = %1
  tail call void @_ZN5Mutex28lock_without_safepoint_checkEv(ptr noundef nonnull align 8 dereferenceable(104) %2) #14
  br label %_ZN11MutexLockerC2EP5MutexNS0_18SafepointCheckFlagE.exit

_ZN11MutexLockerC2EP5MutexNS0_18SafepointCheckFlagE.exit: ; preds = %1, %3
  %4 = getelementptr inbounds i8, ptr %0, i64 16
  %5 = load i32, ptr %4, align 8
  %6 = add nsw i32 %5, 1
  store i32 %6, ptr %4, align 8
  %7 = load ptr, ptr @_ZN15DirectivesStack4_topE, align 8
  %8 = icmp eq ptr %7, null
  br i1 %8, label %9, label %10

9:                                                ; preds = %_ZN11MutexLockerC2EP5MutexNS0_18SafepointCheckFlagE.exit
  store ptr %0, ptr @_ZN15DirectivesStack7_bottomE, align 8
  br label %10

10:                                               ; preds = %9, %_ZN11MutexLockerC2EP5MutexNS0_18SafepointCheckFlagE.exit
  store ptr %7, ptr %0, align 8
  store ptr %0, ptr @_ZN15DirectivesStack4_topE, align 8
  %11 = load i32, ptr @_ZN15DirectivesStack6_depthE, align 4
  %12 = add nsw i32 %11, 1
  store i32 %12, ptr @_ZN15DirectivesStack6_depthE, align 4
  br i1 %.not.i.i, label %_ZN11MutexLockerD2Ev.exit, label %13

13:                                               ; preds = %10
  tail call void @_ZN5Mutex6unlockEv(ptr noundef nonnull align 8 dereferenceable(104) %2) #14
  br label %_ZN11MutexLockerD2Ev.exit

_ZN11MutexLockerD2Ev.exit:                        ; preds = %10, %13
  ret void
}